target datalayout = "e-m:e-p270:32:32-p271:32:32-p272:64:64-i64:64-i128:128-f80:128-n8:16:32:64-S128"
target triple = "x86_64-pc-linux-gnu"

%"struct.duckdb_zstd::ZSTD_customMem" = type { ptr, ptr, ptr }
%"struct.duckdb_zstd::ZSTD_frameParameters" = type { i32, i32, i32 }
%"struct.duckdb_zstd::ZSTD_compressionParameters" = type { i32, i32, i32, i32, i32, i32, i32 }
%"struct.duckdb_zstd::ZSTD_CCtx_params_s" = type { i32, %"struct.duckdb_zstd::ZSTD_compressionParameters", %"struct.duckdb_zstd::ZSTD_frameParameters", i32, i32, i64, i32, i32, i32, i32, i64, i32, i32, %"struct.duckdb_zstd::ldmParams_t", i32, i32, i32, i32, i32, i32, i32, i32, %"struct.duckdb_zstd::ZSTD_customMem", i32, i32, ptr, ptr, i64, i32 }
%"struct.duckdb_zstd::ldmParams_t" = type { i32, i32, i32, i32, i32, i32 }

; Function Attrs: mustprogress nounwind uwtable
define internal noundef i32 @_ZN11duckdb_zstdL28ZSTD_rowMatchFinderSupportedENS_13ZSTD_strategyE(i32 noundef %0) #0 {
  %2 = alloca i32, align 4
  store i32 %0, ptr %2, align 4, !tbaa !101
  %3 = load i32, ptr %2, align 4, !tbaa !101
  %4 = icmp sge i32 %3, 3
  br i1 %4, label %5, label %8

5:                                                ; preds = %1
  %6 = load i32, ptr %2, align 4, !tbaa !101
  %7 = icmp sle i32 %6, 5
  br label %8

8:                                                ; preds = %5, %1
  %9 = phi i1 [ false, %1 ], [ %7, %5 ]
  %10 = zext i1 %9 to i32
  ret i32 %10
}

; Function Attrs: inlinehint mustprogress nounwind uwtable
define internal noundef i32 @_ZN11duckdb_zstdL18ZSTD_hasExtSeqProdEPKNS_18ZSTD_CCtx_params_sE(ptr noundef %0) #6 {
  %2 = alloca ptr, align 8
  store ptr %0, ptr %2, align 8, !tbaa !96
  %3 = load ptr, ptr %2, align 8, !tbaa !96
  %4 = getelementptr inbounds nuw %"struct.duckdb_zstd::ZSTD_CCtx_params_s", ptr %3, i32 0, i32 26
  %5 = load ptr, ptr %4, align 8, !tbaa !182
  %6 = icmp ne ptr %5, null
  %7 = zext i1 %6 to i32
  ret i32 %7
}

; Function Attrs: mustprogress uwtable
define internal noundef i32 @_ZN11duckdb_zstdL30ZSTD_resolveRowMatchFinderModeENS_18ZSTD_paramSwitch_eEPKNS_26ZSTD_compressionParametersE(i32 noundef %0, ptr noundef %1) #2 {
  %3 = alloca i32, align 4
  %4 = alloca i32, align 4
  %5 = alloca ptr, align 8
  %6 = alloca i32, align 4
  %7 = alloca i32, align 4
  store i32 %0, ptr %4, align 4, !tbaa !137
  store ptr %1, ptr %5, align 8, !tbaa !8
  call void @llvm.lifetime.start.p0(i64 4, ptr %6) #16
  store i32 1, ptr %6, align 4, !tbaa !79
  %8 = load i32, ptr %4, align 4, !tbaa !137
  %9 = icmp ne i32 %8, 0
  br i1 %9, label %10, label %12

10:                                               ; preds = %2
  %11 = load i32, ptr %4, align 4, !tbaa !137
  store i32 %11, ptr %3, align 4
  store i32 1, ptr %7, align 4
  br label %28

12:                                               ; preds = %2
  store i32 2, ptr %4, align 4, !tbaa !137
  %13 = load ptr, ptr %5, align 8, !tbaa !8
  %14 = getelementptr inbounds nuw %"struct.duckdb_zstd::ZSTD_compressionParameters", ptr %13, i32 0, i32 6
  %15 = load i32, ptr %14, align 4, !tbaa !108
  %16 = call noundef i32 @_ZN11duckdb_zstdL28ZSTD_rowMatchFinderSupportedENS_13ZSTD_strategyE(i32 noundef %15)
  %17 = icmp ne i32 %16, 0
  br i1 %17, label %20, label %18

18:                                               ; preds = %12
  %19 = load i32, ptr %4, align 4, !tbaa !137
  store i32 %19, ptr %3, align 4
  store i32 1, ptr %7, align 4
  br label %28

20:                                               ; preds = %12
  %21 = load ptr, ptr %5, align 8, !tbaa !8
  %22 = getelementptr inbounds nuw %"struct.duckdb_zstd::ZSTD_compressionParameters", ptr %21, i32 0, i32 0
  %23 = load i32, ptr %22, align 4, !tbaa !102
  %24 = icmp ugt i32 %23, 14
  br i1 %24, label %25, label %26

25:                                               ; preds = %20
  store i32 1, ptr %4, align 4, !tbaa !137
  br label %26

26:                                               ; preds = %25, %20
  %27 = load i32, ptr %4, align 4, !tbaa !137
  store i32 %27, ptr %3, align 4
  store i32 1, ptr %7, align 4
  br label %28

28:                                               ; preds = %26, %18, %10
  call void @llvm.lifetime.end.p0(i64 4, ptr %6) #16
  %29 = load i32, ptr %3, align 4
  ret i32 %29
}

; Function Attrs: mustprogress nounwind uwtable
define noundef i64 @_ZN11duckdb_zstd18ZSTD_compressBoundEm(i64 noundef %0) #0 {
  %2 = alloca i64, align 8
  %3 = alloca i64, align 8
  %4 = alloca i64, align 8
  %5 = alloca i32, align 4
  store i64 %0, ptr %3, align 8, !tbaa !3
  call void @llvm.lifetime.start.p0(i64 8, ptr %4) #16
  %6 = load i64, ptr %3, align 8, !tbaa !3
  %7 = icmp uge i64 %6, -71777214294589696
  br i1 %7, label %8, label %9

8:                                                ; preds = %1
  br label %24

9:                                                ; preds = %1
  %10 = load i64, ptr %3, align 8, !tbaa !3
  %11 = load i64, ptr %3, align 8, !tbaa !3
  %12 = lshr i64 %11, 8
  %13 = add i64 %10, %12
  %14 = load i64, ptr %3, align 8, !tbaa !3
  %15 = icmp ult i64 %14, 131072
  br i1 %15, label %16, label %20

16:                                               ; preds = %9
  %17 = load i64, ptr %3, align 8, !tbaa !3
  %18 = sub i64 131072, %17
  %19 = lshr i64 %18, 11
  br label %21

20:                                               ; preds = %9
  br label %21

21:                                               ; preds = %20, %16
  %22 = phi i64 [ %19, %16 ], [ 0, %20 ]
  %23 = add i64 %13, %22
  br label %24

24:                                               ; preds = %21, %8
  %25 = phi i64 [ 0, %8 ], [ %23, %21 ]
  store i64 %25, ptr %4, align 8, !tbaa !3
  %26 = load i64, ptr %4, align 8, !tbaa !3
  %27 = icmp eq i64 %26, 0
  br i1 %27, label %28, label %29

28:                                               ; preds = %24
  store i64 -72, ptr %2, align 8
  store i32 1, ptr %5, align 4
  br label %31

29:                                               ; preds = %24
  %30 = load i64, ptr %4, align 8, !tbaa !3
  store i64 %30, ptr %2, align 8
  store i32 1, ptr %5, align 4
  br label %31

31:                                               ; preds = %29, %28
  call void @llvm.lifetime.end.p0(i64 8, ptr %4) #16
  %32 = load i64, ptr %2, align 8
  ret i64 %32
}

; Function Attrs: mustprogress nounwind uwtable
define internal noundef i64 @_ZN11duckdb_zstdL24ZSTD_resolveMaxBlockSizeEm(i64 noundef %0) #0 {
  %2 = alloca i64, align 8
  %3 = alloca i64, align 8
  store i64 %0, ptr %3, align 8, !tbaa !3
  %4 = load i64, ptr %3, align 8, !tbaa !3
  %5 = icmp eq i64 %4, 0
  br i1 %5, label %6, label %7

6:                                                ; preds = %1
  store i64 131072, ptr %2, align 8
  br label %9

7:                                                ; preds = %1
  %8 = load i64, ptr %3, align 8, !tbaa !3
  store i64 %8, ptr %2, align 8
  br label %9

9:                                                ; preds = %7, %6
  %10 = load i64, ptr %2, align 8
  ret i64 %10
}

; Function Attrs: mustprogress uwtable
define noundef i64 @_ZN11duckdb_zstd40ZSTD_estimateCStreamSize_usingCCtxParamsEPKNS_18ZSTD_CCtx_params_sE(ptr noundef %0) #2 {
  %2 = alloca i64, align 8
  %3 = alloca ptr, align 8
  %4 = alloca %"struct.duckdb_zstd::ZSTD_compressionParameters", align 4
  %5 = alloca i64, align 8
  %6 = alloca i64, align 8
  %7 = alloca i64, align 8
  %8 = alloca i32, align 4
  store ptr %0, ptr %3, align 8, !tbaa !96
  br label %9

9:                                                ; preds = %1
  %10 = load ptr, ptr %3, align 8, !tbaa !96
  %11 = getelementptr inbounds nuw %"struct.duckdb_zstd::ZSTD_CCtx_params_s", ptr %10, i32 0, i32 9
  %12 = load i32, ptr %11, align 4, !tbaa !153
  %13 = icmp sgt i32 %12, 0
  br i1 %13, label %14, label %23

14:                                               ; preds = %9
  br label %15

15:                                               ; preds = %14
  br label %16

16:                                               ; preds = %15
  br label %17

17:                                               ; preds = %16
  br label %18

18:                                               ; preds = %17
  br label %19

19:                                               ; preds = %18
  br label %20

20:                                               ; preds = %19
  br label %21

21:                                               ; preds = %20
  br label %22

22:                                               ; preds = %21
  store i64 -1, ptr %2, align 8
  br label %89

23:                                               ; preds = %9
  br label %24

24:                                               ; preds = %23
  call void @llvm.lifetime.start.p0(i64 28, ptr %4) #16
  %25 = load ptr, ptr %3, align 8, !tbaa !96
  call void @_ZN11duckdb_zstd29ZSTD_getCParamsFromCCtxParamsEPKNS_18ZSTD_CCtx_params_sEmmNS_17ZSTD_cParamMode_eE(ptr dead_on_unwind writable sret(%"struct.duckdb_zstd::ZSTD_compressionParameters") align 4 %4, ptr noundef %25, i64 noundef -1, i64 noundef 0, i32 noundef 0)
  call void @llvm.lifetime.start.p0(i64 8, ptr %5) #16
  %26 = load ptr, ptr %3, align 8, !tbaa !96
  %27 = getelementptr inbounds nuw %"struct.duckdb_zstd::ZSTD_CCtx_params_s", ptr %26, i32 0, i32 27
  %28 = load i64, ptr %27, align 8, !tbaa !114
  %29 = call noundef i64 @_ZN11duckdb_zstdL24ZSTD_resolveMaxBlockSizeEm(i64 noundef %28)
  %30 = getelementptr inbounds nuw %"struct.duckdb_zstd::ZSTD_compressionParameters", ptr %4, i32 0, i32 0
  %31 = load i32, ptr %30, align 4, !tbaa !102
  %32 = zext i32 %31 to i64
  %33 = shl i64 1, %32
  %34 = icmp ult i64 %29, %33
  br i1 %34, label %35, label %40

35:                                               ; preds = %24
  %36 = load ptr, ptr %3, align 8, !tbaa !96
  %37 = getelementptr inbounds nuw %"struct.duckdb_zstd::ZSTD_CCtx_params_s", ptr %36, i32 0, i32 27
  %38 = load i64, ptr %37, align 8, !tbaa !114
  %39 = call noundef i64 @_ZN11duckdb_zstdL24ZSTD_resolveMaxBlockSizeEm(i64 noundef %38)
  br label %45

40:                                               ; preds = %24
  %41 = getelementptr inbounds nuw %"struct.duckdb_zstd::ZSTD_compressionParameters", ptr %4, i32 0, i32 0
  %42 = load i32, ptr %41, align 4, !tbaa !102
  %43 = zext i32 %42 to i64
  %44 = shl i64 1, %43
  br label %45

45:                                               ; preds = %40, %35
  %46 = phi i64 [ %39, %35 ], [ %44, %40 ]
  store i64 %46, ptr %5, align 8, !tbaa !3
  call void @llvm.lifetime.start.p0(i64 8, ptr %6) #16
  %47 = load ptr, ptr %3, align 8, !tbaa !96
  %48 = getelementptr inbounds nuw %"struct.duckdb_zstd::ZSTD_CCtx_params_s", ptr %47, i32 0, i32 15
  %49 = load i32, ptr %48, align 4, !tbaa !146
  %50 = icmp eq i32 %49, 0
  br i1 %50, label %51, label %58

51:                                               ; preds = %45
  %52 = getelementptr inbounds nuw %"struct.duckdb_zstd::ZSTD_compressionParameters", ptr %4, i32 0, i32 0
  %53 = load i32, ptr %52, align 4, !tbaa !102
  %54 = zext i32 %53 to i64
  %55 = shl i64 1, %54
  %56 = load i64, ptr %5, align 8, !tbaa !3
  %57 = add i64 %55, %56
  br label %59

58:                                               ; preds = %45
  br label %59

59:                                               ; preds = %58, %51
  %60 = phi i64 [ %57, %51 ], [ 0, %58 ]
  store i64 %60, ptr %6, align 8, !tbaa !3
  call void @llvm.lifetime.start.p0(i64 8, ptr %7) #16
  %61 = load ptr, ptr %3, align 8, !tbaa !96
  %62 = getelementptr inbounds nuw %"struct.duckdb_zstd::ZSTD_CCtx_params_s", ptr %61, i32 0, i32 16
  %63 = load i32, ptr %62, align 8, !tbaa !147
  %64 = icmp eq i32 %63, 0
  br i1 %64, label %65, label %69

65:                                               ; preds = %59
  %66 = load i64, ptr %5, align 8, !tbaa !3
  %67 = call noundef i64 @_ZN11duckdb_zstd18ZSTD_compressBoundEm(i64 noundef %66)
  %68 = add i64 %67, 1
  br label %70

69:                                               ; preds = %59
  br label %70

70:                                               ; preds = %69, %65
  %71 = phi i64 [ %68, %65 ], [ 0, %69 ]
  store i64 %71, ptr %7, align 8, !tbaa !3
  call void @llvm.lifetime.start.p0(i64 4, ptr %8) #16
  %72 = load ptr, ptr %3, align 8, !tbaa !96
  %73 = getelementptr inbounds nuw %"struct.duckdb_zstd::ZSTD_CCtx_params_s", ptr %72, i32 0, i32 20
  %74 = load i32, ptr %73, align 8, !tbaa !110
  %75 = load ptr, ptr %3, align 8, !tbaa !96
  %76 = getelementptr inbounds nuw %"struct.duckdb_zstd::ZSTD_CCtx_params_s", ptr %75, i32 0, i32 1
  %77 = call noundef i32 @_ZN11duckdb_zstdL30ZSTD_resolveRowMatchFinderModeENS_18ZSTD_paramSwitch_eEPKNS_26ZSTD_compressionParametersE(i32 noundef %74, ptr noundef %76)
  store i32 %77, ptr %8, align 4, !tbaa !137
  %78 = load ptr, ptr %3, align 8, !tbaa !96
  %79 = getelementptr inbounds nuw %"struct.duckdb_zstd::ZSTD_CCtx_params_s", ptr %78, i32 0, i32 13
  %80 = load i32, ptr %8, align 4, !tbaa !137
  %81 = load i64, ptr %6, align 8, !tbaa !3
  %82 = load i64, ptr %7, align 8, !tbaa !3
  %83 = load ptr, ptr %3, align 8, !tbaa !96
  %84 = call noundef i32 @_ZN11duckdb_zstdL18ZSTD_hasExtSeqProdEPKNS_18ZSTD_CCtx_params_sE(ptr noundef %83)
  %85 = load ptr, ptr %3, align 8, !tbaa !96
  %86 = getelementptr inbounds nuw %"struct.duckdb_zstd::ZSTD_CCtx_params_s", ptr %85, i32 0, i32 27
  %87 = load i64, ptr %86, align 8, !tbaa !114
  %88 = call noundef i64 @_ZN11duckdb_zstdL46ZSTD_estimateCCtxSize_usingCCtxParams_internalEPKNS_26ZSTD_compressionParametersEPKNS_11ldmParams_tEiNS_18ZSTD_paramSwitch_eEmmmim(ptr noundef %4, ptr noundef %79, i32 noundef 1, i32 noundef %80, i64 noundef %81, i64 noundef %82, i64 noundef -1, i32 noundef %84, i64 noundef %87)
  store i64 %88, ptr %2, align 8
  call void @llvm.lifetime.end.p0(i64 4, ptr %8) #16
  call void @llvm.lifetime.end.p0(i64 8, ptr %7) #16
  call void @llvm.lifetime.end.p0(i64 8, ptr %6) #16
  call void @llvm.lifetime.end.p0(i64 8, ptr %5) #16
  call void @llvm.lifetime.end.p0(i64 28, ptr %4) #16
  br label %89

89:                                               ; preds = %70, %22
  %90 = load i64, ptr %2, align 8
  ret i64 %90
}