; Function Attrs: mustprogress uwtable
define noundef i64 @_ZN11duckdb_zstd40ZSTD_estimateCStreamSize_usingCCtxParamsEPKNS_18ZSTD_CCtx_params_sE(ptr noundef readonly captures(none) %0) local_unnamed_addr #2 {
  %2 = alloca %"struct.duckdb_zstd::ZSTD_compressionParameters", align 4
  %3 = getelementptr inbounds nuw i8, ptr %0, i64 76
  %4 = load i32, ptr %3, align 4, !tbaa !128
  %5 = icmp sgt i32 %4, 0
  br i1 %5, label %49, label %6

6:                                                ; preds = %1
  call void @llvm.lifetime.start.p0(i64 28, ptr nonnull %2) #28
  call void @_ZN11duckdb_zstd29ZSTD_getCParamsFromCCtxParamsEPKNS_18ZSTD_CCtx_params_sEmmNS_17ZSTD_cParamMode_eE(ptr dead_on_unwind nonnull writable sret(%"struct.duckdb_zstd::ZSTD_compressionParameters") align 4 %2, ptr noundef nonnull %0, i64 noundef -1, i64 noundef 0, i32 noundef 0)
  %7 = getelementptr inbounds nuw i8, ptr %0, i64 200
  %8 = load i64, ptr %7, align 8, !tbaa !91
  %9 = icmp eq i64 %8, 0
  %..i = select i1 %9, i64 131072, i64 %8
  %10 = load i32, ptr %2, align 4, !tbaa !93
  %11 = zext nneg i32 %10 to i64
  %12 = shl nuw i64 1, %11
  %spec.select = tail call i64 @llvm.umin.i64(i64 %..i, i64 %12)
  %13 = getelementptr inbounds nuw i8, ptr %0, i64 124
  %14 = load i32, ptr %13, align 4, !tbaa !121
  %15 = icmp eq i32 %14, 0
  %16 = add i64 %spec.select, %12
  %17 = select i1 %15, i64 %16, i64 0
  %18 = getelementptr inbounds nuw i8, ptr %0, i64 128
  %19 = load i32, ptr %18, align 8, !tbaa !122
  %20 = icmp eq i32 %19, 0
  br i1 %20, label %_ZN11duckdb_zstd18ZSTD_compressBoundEm.exit, label %31

_ZN11duckdb_zstd18ZSTD_compressBoundEm.exit:      ; preds = %6
  %21 = lshr i64 %spec.select, 8
  %22 = add nuw i64 %21, %spec.select
  %23 = icmp ult i64 %spec.select, 131072
  %24 = sub nuw nsw i64 131072, %spec.select
  %25 = lshr i64 %24, 11
  %26 = select i1 %23, i64 %25, i64 0
  %27 = add nuw i64 %22, %26
  %.fr.i = freeze i64 %27
  %28 = icmp eq i64 %.fr.i, 0
  %29 = add i64 %.fr.i, 1
  %30 = select i1 %28, i64 -71, i64 %29
  br label %31

31:                                               ; preds = %6, %_ZN11duckdb_zstd18ZSTD_compressBoundEm.exit
  %32 = phi i64 [ %30, %_ZN11duckdb_zstd18ZSTD_compressBoundEm.exit ], [ 0, %6 ]
  %33 = getelementptr inbounds nuw i8, ptr %0, i64 144
  %34 = load i32, ptr %33, align 8, !tbaa !88
  %35 = getelementptr inbounds nuw i8, ptr %0, i64 4
  %.not.i = icmp eq i32 %34, 0
  br i1 %.not.i, label %36, label %_ZN11duckdb_zstdL30ZSTD_resolveRowMatchFinderModeENS_18ZSTD_paramSwitch_eEPKNS_26ZSTD_compressionParametersE.exit

36:                                               ; preds = %31
  %37 = getelementptr inbounds nuw i8, ptr %0, i64 28
  %38 = load i32, ptr %37, align 4, !tbaa !98
  %39 = add i32 %38, -6
  %40 = icmp ult i32 %39, -3
  br i1 %40, label %_ZN11duckdb_zstdL30ZSTD_resolveRowMatchFinderModeENS_18ZSTD_paramSwitch_eEPKNS_26ZSTD_compressionParametersE.exit, label %41

41:                                               ; preds = %36
  %42 = load i32, ptr %35, align 4, !tbaa !93
  %43 = icmp ugt i32 %42, 14
  %spec.select.i = select i1 %43, i32 1, i32 2
  br label %_ZN11duckdb_zstdL30ZSTD_resolveRowMatchFinderModeENS_18ZSTD_paramSwitch_eEPKNS_26ZSTD_compressionParametersE.exit

_ZN11duckdb_zstdL30ZSTD_resolveRowMatchFinderModeENS_18ZSTD_paramSwitch_eEPKNS_26ZSTD_compressionParametersE.exit: ; preds = %31, %36, %41
  %.0.i = phi i32 [ %spec.select.i, %41 ], [ %34, %31 ], [ 2, %36 ]
  %44 = getelementptr inbounds nuw i8, ptr %0, i64 96
  %45 = getelementptr i8, ptr %0, i64 192
  %.val = load ptr, ptr %45, align 8, !tbaa !147
  %46 = icmp ne ptr %.val, null
  %47 = zext i1 %46 to i32
  %48 = call fastcc noundef i64 @_ZN11duckdb_zstdL46ZSTD_estimateCCtxSize_usingCCtxParams_internalEPKNS_26ZSTD_compressionParametersEPKNS_11ldmParams_tEiNS_18ZSTD_paramSwitch_eEmmmim(ptr noundef nonnull %2, ptr noundef nonnull %44, i32 noundef 1, i32 noundef %.0.i, i64 noundef %17, i64 noundef %32, i64 noundef -1, i32 noundef %47, i64 noundef %8)
  call void @llvm.lifetime.end.p0(i64 28, ptr nonnull %2) #28
  br label %49

49:                                               ; preds = %1, %_ZN11duckdb_zstdL30ZSTD_resolveRowMatchFinderModeENS_18ZSTD_paramSwitch_eEPKNS_26ZSTD_compressionParametersE.exit
  %.0 = phi i64 [ %48, %_ZN11duckdb_zstdL30ZSTD_resolveRowMatchFinderModeENS_18ZSTD_paramSwitch_eEPKNS_26ZSTD_compressionParametersE.exit ], [ -1, %1 ]
  ret i64 %.0
}